target datalayout = "e-m:e-p270:32:32-p271:32:32-p272:64:64-i64:64-i128:128-f80:128-n8:16:32:64-S128"
target triple = "x86_64-unknown-linux-gnu"

%"class.grpc_core::ChannelStackBuilder" = type { ptr, ptr, i32, %"class.std::__cxx11::basic_string", %"class.grpc_core::ChannelArgs", %"class.std::vector" }
%"class.std::__cxx11::basic_string" = type { %"struct.std::__cxx11::basic_string<char>::_Alloc_hider", i64, %union.anon }
%"struct.std::__cxx11::basic_string<char>::_Alloc_hider" = type { ptr }
%union.anon = type { i64, [8 x i8] }
%"class.grpc_core::ChannelArgs" = type { %"class.grpc_core::AVL" }
%"class.grpc_core::AVL" = type { %"class.grpc_core::RefCountedPtr" }
%"class.grpc_core::RefCountedPtr" = type { ptr }
%"class.std::vector" = type { %"struct.std::_Vector_base" }
%"struct.std::_Vector_base" = type { %"struct.std::_Vector_base<const grpc_channel_filter *, std::allocator<const grpc_channel_filter *>>::_Vector_impl" }
%"struct.std::_Vector_base<const grpc_channel_filter *, std::allocator<const grpc_channel_filter *>>::_Vector_impl" = type { %"struct.std::_Vector_base<const grpc_channel_filter *, std::allocator<const grpc_channel_filter *>>::_Vector_impl_data" }
%"struct.std::_Vector_base<const grpc_channel_filter *, std::allocator<const grpc_channel_filter *>>::_Vector_impl_data" = type { ptr, ptr, ptr }

; Function Attrs: mustprogress uwtable
define noundef nonnull align 8 dereferenceable(88) ptr @_ZN9grpc_core19ChannelStackBuilder9SetTargetEPKc(ptr noundef nonnull align 8 dereferenceable(88) %this, ptr noundef %target) #4 align 2 {
entry:
  %this.addr = alloca ptr, align 8
  %target.addr = alloca ptr, align 8
  %ref.tmp = alloca %"class.std::__cxx11::basic_string", align 8
  store ptr %this, ptr %this.addr, align 8
  store ptr %target, ptr %target.addr, align 8
  %this1 = load ptr, ptr %this.addr, align 8
  %0 = load ptr, ptr %target.addr, align 8
  %cmp = icmp eq ptr %0, null
  br i1 %cmp, label %if.then, label %if.else

if.then:                                          ; preds = %entry
  call void @_ZN9grpc_core19ChannelStackBuilder14unknown_targetB5cxx11Ev(ptr sret(%"class.std::__cxx11::basic_string") align 8 %ref.tmp)
  %target_ = getelementptr inbounds %"class.grpc_core::ChannelStackBuilder", ptr %this1, i32 0, i32 3
  %call = call noundef nonnull align 8 dereferenceable(32) ptr @_ZNSt7__cxx1112basic_stringIcSt11char_traitsIcESaIcEEaSEOS4_(ptr noundef nonnull align 8 dereferenceable(32) %target_, ptr noundef nonnull align 8 dereferenceable(32) %ref.tmp) #3
  call void @_ZNSt7__cxx1112basic_stringIcSt11char_traitsIcESaIcEED1Ev(ptr noundef nonnull align 8 dereferenceable(32) %ref.tmp) #3
  br label %if.end

if.else:                                          ; preds = %entry
  %1 = load ptr, ptr %target.addr, align 8
  %target_2 = getelementptr inbounds %"class.grpc_core::ChannelStackBuilder", ptr %this1, i32 0, i32 3
  %call3 = call noundef nonnull align 8 dereferenceable(32) ptr @_ZNSt7__cxx1112basic_stringIcSt11char_traitsIcESaIcEEaSEPKc(ptr noundef nonnull align 8 dereferenceable(32) %target_2, ptr noundef %1)
  br label %if.end

if.end:                                           ; preds = %if.else, %if.then
  ret ptr %this1
}