; Function Attrs: mustprogress uwtable
define noundef nonnull align 8 dereferenceable(88) ptr @_ZN9grpc_core19ChannelStackBuilder9SetTargetEPKc(ptr noundef nonnull returned align 8 dereferenceable(88) %this, ptr noundef %target) local_unnamed_addr #3 align 2 {
entry:
  %ref.tmp = alloca %"class.std::__cxx11::basic_string", align 8
  %cmp = icmp eq ptr %target, null
  br i1 %cmp, label %if.then, label %if.else

if.then:                                          ; preds = %entry
  call void @_ZN9grpc_core19ChannelStackBuilder14unknown_targetB5cxx11Ev(ptr nonnull sret(%"class.std::__cxx11::basic_string") align 8 %ref.tmp)
  %target_ = getelementptr inbounds i8, ptr %this, i64 24
  %call = call noundef nonnull align 8 dereferenceable(32) ptr @_ZNSt7__cxx1112basic_stringIcSt11char_traitsIcESaIcEEaSEOS4_(ptr noundef nonnull align 8 dereferenceable(32) %target_, ptr noundef nonnull align 8 dereferenceable(32) %ref.tmp) #13
  call void @_ZNSt7__cxx1112basic_stringIcSt11char_traitsIcESaIcEED1Ev(ptr noundef nonnull align 8 dereferenceable(32) %ref.tmp) #13
  br label %if.end

if.else:                                          ; preds = %entry
  %target_2 = getelementptr inbounds i8, ptr %this, i64 24
  %call3 = tail call noundef nonnull align 8 dereferenceable(32) ptr @_ZNSt7__cxx1112basic_stringIcSt11char_traitsIcESaIcEEaSEPKc(ptr noundef nonnull align 8 dereferenceable(32) %target_2, ptr noundef nonnull %target)
  br label %if.end

if.end:                                           ; preds = %if.else, %if.then
  ret ptr %this
}